target datalayout = "e-m:e-p270:32:32-p271:32:32-p272:64:64-i64:64-i128:128-f80:128-n8:16:32:64-S128"
target triple = "x86_64-pc-linux-gnu"

%"class.vcg::GLMeshAttributesInfo::RenderingAtts" = type { [7 x i8] }
%"class.std::allocator.5" = type { i8 }
%"struct.vcg::GLMeshAttributesInfo::Exception" = type { %"class.std::exception", %"class.std::__cxx11::basic_string" }
%"class.std::exception" = type { ptr }
%"class.std::__cxx11::basic_string" = type { %"struct.std::__cxx11::basic_string<char>::_Alloc_hider", i64, %union.anon }
%"struct.std::__cxx11::basic_string<char>::_Alloc_hider" = type { ptr }
%union.anon = type { i64, [8 x i8] }

@.str = private unnamed_addr constant [20 x i8] c"Out of range value\0A\00", align 1
@_ZTIN3vcg20GLMeshAttributesInfo9ExceptionE = linkonce_odr constant { ptr, ptr, ptr } { ptr getelementptr inbounds (ptr, ptr @_ZTVN10__cxxabiv120__si_class_type_infoE, i64 2), ptr @_ZTSN3vcg20GLMeshAttributesInfo9ExceptionE, ptr @_ZTISt9exception }, comdat, align 8
@_ZTVSt9exception = external unnamed_addr constant { [5 x ptr] }, align 8

; Function Attrs: mustprogress nounwind uwtable
define linkonce_odr void @_ZNSt9exceptionC2Ev(ptr noundef nonnull align 8 dereferenceable(8) %0) unnamed_addr #0 comdat align 2 {
  %2 = alloca ptr, align 8
  store ptr %0, ptr %2, align 8
  %3 = load ptr, ptr %2, align 8
  store ptr getelementptr inbounds ({ [5 x ptr] }, ptr @_ZTVSt9exception, i32 0, i32 0, i32 2), ptr %3, align 8
  ret void
}

; Function Attrs: mustprogress uwtable
define linkonce_odr void @_ZN3vcg20GLMeshAttributesInfo9ExceptionC2EPKc(ptr noundef nonnull align 8 dereferenceable(40) %0, ptr noundef %1) unnamed_addr #5 comdat align 2 personality ptr @__gxx_personality_v0 {
  %3 = alloca ptr, align 8
  %4 = alloca ptr, align 8
  %5 = alloca %"class.std::allocator.5", align 1
  %6 = alloca ptr, align 8
  %7 = alloca i32, align 4
  store ptr %0, ptr %3, align 8
  store ptr %1, ptr %4, align 8
  %8 = load ptr, ptr %3, align 8
  call void @_ZNSt9exceptionC2Ev(ptr noundef nonnull align 8 dereferenceable(8) %8) #4
  store ptr getelementptr inbounds ({ [5 x ptr] }, ptr @_ZTVN3vcg20GLMeshAttributesInfo9ExceptionE, i32 0, i32 0, i32 2), ptr %8, align 8
  %9 = getelementptr inbounds %"struct.vcg::GLMeshAttributesInfo::Exception", ptr %8, i32 0, i32 1
  %10 = load ptr, ptr %4, align 8
  call void @_ZNSaIcEC1Ev(ptr noundef nonnull align 1 dereferenceable(1) %5) #4
  invoke void @_ZNSt7__cxx1112basic_stringIcSt11char_traitsIcESaIcEEC1EPKcRKS3_(ptr noundef nonnull align 8 dereferenceable(32) %9, ptr noundef %10, ptr noundef nonnull align 1 dereferenceable(1) %5)
          to label %11 unwind label %12

11:                                               ; preds = %2
  call void @_ZNSaIcED1Ev(ptr noundef nonnull align 1 dereferenceable(1) %5) #4
  ret void

12:                                               ; preds = %2
  %13 = landingpad { ptr, i32 }
          cleanup
  %14 = extractvalue { ptr, i32 } %13, 0
  store ptr %14, ptr %6, align 8
  %15 = extractvalue { ptr, i32 } %13, 1
  store i32 %15, ptr %7, align 4
  call void @_ZNSaIcED1Ev(ptr noundef nonnull align 1 dereferenceable(1) %5) #4
  call void @_ZNSt9exceptionD2Ev(ptr noundef nonnull align 8 dereferenceable(8) %8) #4
  br label %16

16:                                               ; preds = %12
  %17 = load ptr, ptr %6, align 8
  %18 = load i32, ptr %7, align 4
  %19 = insertvalue { ptr, i32 } poison, ptr %17, 0
  %20 = insertvalue { ptr, i32 } %19, i32 %18, 1
  resume { ptr, i32 } %20
}

; Function Attrs: mustprogress nounwind uwtable
define linkonce_odr noundef i32 @_ZN3vcg20GLMeshAttributesInfo9ATT_NAMES9enumArityEv() #0 comdat align 2 {
  ret i32 7
}

; Function Attrs: mustprogress uwtable
define linkonce_odr void @_ZN3vcg20GLMeshAttributesInfo13RenderingAttsINS0_9ATT_NAMESEE5resetEb(ptr noundef nonnull align 1 dereferenceable(7) %0, i1 noundef zeroext %1) #5 comdat align 2 {
  %3 = alloca ptr, align 8
  %4 = alloca i8, align 1
  %5 = alloca i32, align 4
  store ptr %0, ptr %3, align 8
  %6 = zext i1 %1 to i8
  store i8 %6, ptr %4, align 1
  %7 = load ptr, ptr %3, align 8
  store i32 0, ptr %5, align 4
  br label %8

8:                                                ; preds = %20, %2
  %9 = load i32, ptr %5, align 4
  %10 = call noundef i32 @_ZN3vcg20GLMeshAttributesInfo9ATT_NAMES9enumArityEv()
  %11 = icmp ult i32 %9, %10
  br i1 %11, label %12, label %23

12:                                               ; preds = %8
  %13 = load i8, ptr %4, align 1
  %14 = trunc i8 %13 to i1
  %15 = getelementptr inbounds %"class.vcg::GLMeshAttributesInfo::RenderingAtts", ptr %7, i32 0, i32 0
  %16 = load i32, ptr %5, align 4
  %17 = zext i32 %16 to i64
  %18 = getelementptr inbounds [7 x i8], ptr %15, i64 0, i64 %17
  %19 = zext i1 %14 to i8
  store i8 %19, ptr %18, align 1
  br label %20

20:                                               ; preds = %12
  %21 = load i32, ptr %5, align 4
  %22 = add i32 %21, 1
  store i32 %22, ptr %5, align 4
  br label %8, !llvm.loop !5

23:                                               ; preds = %8
  ret void
}

; Function Attrs: mustprogress nounwind uwtable
define linkonce_odr void @_ZN3vcg20GLMeshAttributesInfo13RenderingAttsINS0_9ATT_NAMESEED2Ev(ptr noundef nonnull align 1 dereferenceable(7) %0) unnamed_addr #0 comdat align 2 {
  %2 = alloca ptr, align 8
  store ptr %0, ptr %2, align 8
  ret void
}

; Function Attrs: mustprogress uwtable
define linkonce_odr noundef nonnull align 1 dereferenceable(1) ptr @_ZN3vcg20GLMeshAttributesInfo13RenderingAttsINS0_9ATT_NAMESEEixEj(ptr noundef nonnull align 1 dereferenceable(7) %0, i32 noundef %1) #5 comdat align 2 personality ptr @__gxx_personality_v0 {
  %3 = alloca ptr, align 8
  %4 = alloca i32, align 4
  %5 = alloca ptr, align 8
  %6 = alloca i32, align 4
  store ptr %0, ptr %3, align 8
  store i32 %1, ptr %4, align 4
  %7 = load ptr, ptr %3, align 8
  %8 = load i32, ptr %4, align 4
  %9 = call noundef i32 @_ZN3vcg20GLMeshAttributesInfo9ATT_NAMES9enumArityEv()
  %10 = icmp uge i32 %8, %9
  br i1 %10, label %11, label %18

11:                                               ; preds = %2
  %12 = call ptr @__cxa_allocate_exception(i64 40) #4
  invoke void @_ZN3vcg20GLMeshAttributesInfo9ExceptionC2EPKc(ptr noundef nonnull align 8 dereferenceable(40) %12, ptr noundef @.str)
          to label %13 unwind label %14

13:                                               ; preds = %11
  call void @__cxa_throw(ptr %12, ptr @_ZTIN3vcg20GLMeshAttributesInfo9ExceptionE, ptr @_ZN3vcg20GLMeshAttributesInfo9ExceptionD2Ev) #8
  unreachable

14:                                               ; preds = %11
  %15 = landingpad { ptr, i32 }
          cleanup
  %16 = extractvalue { ptr, i32 } %15, 0
  store ptr %16, ptr %5, align 8
  %17 = extractvalue { ptr, i32 } %15, 1
  store i32 %17, ptr %6, align 4
  call void @__cxa_free_exception(ptr %12) #4
  br label %23

18:                                               ; preds = %2
  %19 = getelementptr inbounds %"class.vcg::GLMeshAttributesInfo::RenderingAtts", ptr %7, i32 0, i32 0
  %20 = load i32, ptr %4, align 4
  %21 = zext i32 %20 to i64
  %22 = getelementptr inbounds [7 x i8], ptr %19, i64 0, i64 %21
  ret ptr %22

23:                                               ; preds = %14
  %24 = load ptr, ptr %5, align 8
  %25 = load i32, ptr %6, align 4
  %26 = insertvalue { ptr, i32 } poison, ptr %24, 0
  %27 = insertvalue { ptr, i32 } %26, i32 %25, 1
  resume { ptr, i32 } %27
}

; Function Attrs: mustprogress uwtable
define linkonce_odr void @_ZN3vcg20GLMeshAttributesInfo13RenderingAttsINS0_9ATT_NAMESEEC2Eb(ptr noundef nonnull align 1 dereferenceable(7) %0, i1 noundef zeroext %1) unnamed_addr #5 comdat align 2 {
  %3 = alloca ptr, align 8
  %4 = alloca i8, align 1
  store ptr %0, ptr %3, align 8
  %5 = zext i1 %1 to i8
  store i8 %5, ptr %4, align 1
  %6 = load ptr, ptr %3, align 8
  %7 = load i8, ptr %4, align 1
  %8 = trunc i8 %7 to i1
  call void @_ZN3vcg20GLMeshAttributesInfo13RenderingAttsINS0_9ATT_NAMESEE5resetEb(ptr noundef nonnull align 1 dereferenceable(7) %6, i1 noundef zeroext %8)
  ret void
}

; Function Attrs: mustprogress uwtable
define void @_ZN17MLPluginGLContext35pointModalitySuggestedRenderingDataER15MLRenderingData(ptr noundef nonnull align 8 dereferenceable(40) %0) #5 align 2 personality ptr @__gxx_personality_v0 {
  %2 = alloca ptr, align 8
  %3 = alloca %"class.vcg::GLMeshAttributesInfo::RenderingAtts", align 1
  %4 = alloca ptr, align 8
  %5 = alloca i32, align 4
  store ptr %0, ptr %2, align 8
  call void @_ZN3vcg20GLMeshAttributesInfo13RenderingAttsINS0_9ATT_NAMESEEC2Eb(ptr noundef nonnull align 1 dereferenceable(7) %3, i1 noundef zeroext false)
  %6 = invoke noundef nonnull align 1 dereferenceable(1) ptr @_ZN3vcg20GLMeshAttributesInfo13RenderingAttsINS0_9ATT_NAMESEEixEj(ptr noundef nonnull align 1 dereferenceable(7) %3, i32 noundef 0)
          to label %7 unwind label %13

7:                                                ; preds = %1
  store i8 1, ptr %6, align 1
  %8 = invoke noundef nonnull align 1 dereferenceable(1) ptr @_ZN3vcg20GLMeshAttributesInfo13RenderingAttsINS0_9ATT_NAMESEEixEj(ptr noundef nonnull align 1 dereferenceable(7) %3, i32 noundef 1)
          to label %9 unwind label %13

9:                                                ; preds = %7
  store i8 1, ptr %8, align 1
  %10 = load ptr, ptr %2, align 8
  %11 = invoke noundef zeroext i1 @_ZN15MLRenderingData3setEN3vcg20GLMeshAttributesInfo18PRIMITIVE_MODALITYERKNS1_13RenderingAttsINS1_9ATT_NAMESEEE(ptr noundef nonnull align 8 dereferenceable(40) %10, i32 noundef 0, ptr noundef nonnull align 1 dereferenceable(7) %3)
          to label %12 unwind label %13

12:                                               ; preds = %9
  call void @_ZN3vcg20GLMeshAttributesInfo13RenderingAttsINS0_9ATT_NAMESEED2Ev(ptr noundef nonnull align 1 dereferenceable(7) %3) #4
  ret void

13:                                               ; preds = %9, %7, %1
  %14 = landingpad { ptr, i32 }
          cleanup
  %15 = extractvalue { ptr, i32 } %14, 0
  store ptr %15, ptr %4, align 8
  %16 = extractvalue { ptr, i32 } %14, 1
  store i32 %16, ptr %5, align 4
  call void @_ZN3vcg20GLMeshAttributesInfo13RenderingAttsINS0_9ATT_NAMESEED2Ev(ptr noundef nonnull align 1 dereferenceable(7) %3) #4
  br label %17

17:                                               ; preds = %13
  %18 = load ptr, ptr %4, align 8
  %19 = load i32, ptr %5, align 4
  %20 = insertvalue { ptr, i32 } poison, ptr %18, 0
  %21 = insertvalue { ptr, i32 } %20, i32 %19, 1
  resume { ptr, i32 } %21
}